; Function Attrs: nounwind uwtable
define hidden noundef i32 @dom_node_base_uri_read(ptr noundef %0, ptr nocapture noundef writeonly %1) local_unnamed_addr #0 {
  %3 = tail call ptr @dom_object_get_node(ptr noundef %0) #12
  %4 = icmp eq ptr %3, null
  br i1 %4, label %5, label %6

5:                                                ; preds = %2
  tail call void @php_dom_throw_error(i32 noundef 11, i32 noundef 1) #12
  br label %24

6:                                                ; preds = %2
  %7 = getelementptr inbounds i8, ptr %3, i64 64
  %8 = load ptr, ptr %7, align 8
  %9 = tail call ptr @xmlNodeGetBase(ptr noundef %8, ptr noundef nonnull %3) #12
  %.not = icmp eq ptr %9, null
  br i1 %.not, label %22, label %10

10:                                               ; preds = %6
  %11 = tail call i64 @strlen(ptr noundef nonnull dereferenceable(1) %9) #11
  %12 = and i64 %11, -8
  %13 = add i64 %12, 32
  %14 = tail call noalias ptr @_emalloc(i64 noundef %13) #10
  store i32 1, ptr %14, align 4
  %15 = getelementptr inbounds i8, ptr %14, i64 4
  store i32 22, ptr %15, align 4
  %16 = getelementptr inbounds i8, ptr %14, i64 8
  store i64 0, ptr %16, align 8
  %17 = getelementptr inbounds i8, ptr %14, i64 16
  store i64 %11, ptr %17, align 8
  %18 = getelementptr inbounds i8, ptr %14, i64 24
  tail call void @llvm.memcpy.p0.p0.i64(ptr nonnull align 8 %18, ptr nonnull align 1 %9, i64 %11, i1 false)
  %19 = getelementptr inbounds [1 x i8], ptr %18, i64 0, i64 %11
  store i8 0, ptr %19, align 1
  store ptr %14, ptr %1, align 8
  %20 = getelementptr inbounds i8, ptr %1, i64 8
  store i32 262, ptr %20, align 8
  %21 = load ptr, ptr @xmlFree, align 8
  tail call void %21(ptr noundef nonnull %9) #12
  br label %24

22:                                               ; preds = %6
  %23 = getelementptr inbounds i8, ptr %1, i64 8
  store i32 1, ptr %23, align 8
  br label %24

24:                                               ; preds = %10, %22, %5
  %.0 = phi i32 [ -1, %5 ], [ 0, %22 ], [ 0, %10 ]
  ret i32 %.0
}